; Function Attrs: nounwind uwtable
define dso_local void @functionDeleteCommand(ptr noundef %0) local_unnamed_addr #1 {
  %2 = getelementptr inbounds nuw i8, ptr %0, i64 96
  %3 = load ptr, ptr %2, align 8, !tbaa !97
  %4 = getelementptr inbounds nuw i8, ptr %3, i64 16
  %5 = load ptr, ptr %4, align 8, !tbaa !98
  %6 = load ptr, ptr @curr_functions_lib_ctx, align 8, !tbaa !40
  %7 = load ptr, ptr %6, align 8, !tbaa !35
  %8 = getelementptr inbounds nuw i8, ptr %5, i64 8
  %9 = load ptr, ptr %8, align 8, !tbaa !99
  %10 = tail call ptr @dictFetchValue(ptr noundef %7, ptr noundef %9) #12
  %.not = icmp eq ptr %10, null
  br i1 %.not, label %11, label %engineLibraryFree.exit

11:                                               ; preds = %1
  tail call void @addReplyError(ptr noundef nonnull %0, ptr noundef nonnull @.str.22) #12
  br label %21

engineLibraryFree.exit:                           ; preds = %1
  %12 = load ptr, ptr @curr_functions_lib_ctx, align 8, !tbaa !40
  tail call fastcc void @libraryUnlink(ptr noundef %12, ptr noundef %10)
  %13 = getelementptr inbounds nuw i8, ptr %10, i64 8
  %14 = load ptr, ptr %13, align 8, !tbaa !30
  tail call void @dictRelease(ptr noundef %14) #12
  %15 = load ptr, ptr %10, align 8, !tbaa !31
  tail call void @sdsfree(ptr noundef %15) #12
  %16 = getelementptr inbounds nuw i8, ptr %10, i64 24
  %17 = load ptr, ptr %16, align 8, !tbaa !32
  tail call void @sdsfree(ptr noundef %17) #12
  tail call void @zfree(ptr noundef nonnull %10) #12
  %18 = load i64, ptr getelementptr inbounds nuw (i8, ptr @server, i64 6720), align 8, !tbaa !115
  %19 = add nsw i64 %18, 1
  store i64 %19, ptr getelementptr inbounds nuw (i8, ptr @server, i64 6720), align 8, !tbaa !115
  %20 = load ptr, ptr @shared, align 8, !tbaa !116
  tail call void @addReply(ptr noundef nonnull %0, ptr noundef %20) #12
  br label %21

21:                                               ; preds = %engineLibraryFree.exit, %11
  ret void
}